target datalayout = "e-m:e-p270:32:32-p271:32:32-p272:64:64-i64:64-i128:128-f80:128-n8:16:32:64-S128"
target triple = "x86_64-pc-linux-gnu"

@hf_cigi3_sensor_control_view_id = internal global i32 0, align 4
@hf_cigi3_sensor_control_sensor_id = internal global i32 0, align 4
@hf_cigi3_sensor_control_sensor_on_off = internal global i32 0, align 4
@hf_cigi3_sensor_control_polarity = internal global i32 0, align 4
@hf_cigi3_sensor_control_line_dropout_enable = internal global i32 0, align 4
@hf_cigi3_sensor_control_auto_gain = internal global i32 0, align 4
@hf_cigi3_sensor_control_track_white_black = internal global i32 0, align 4
@hf_cigi3_sensor_control_track_mode = internal global i32 0, align 4
@hf_cigi3_sensor_control_response_type = internal global i32 0, align 4
@hf_cigi3_sensor_control_gain = internal global i32 0, align 4
@hf_cigi3_sensor_control_level = internal global i32 0, align 4
@hf_cigi3_sensor_control_ac_coupling = internal global i32 0, align 4
@hf_cigi3_sensor_control_noise = internal global i32 0, align 4
@cigi_byte_order = internal global i32 0, align 4

; Function Attrs: null_pointer_is_valid sspstrong uwtable
define internal i32 @cigi4_add_sensor_control(ptr noundef %0, ptr noundef %1, ptr noundef %2, ptr noundef %3) #0 {
  %5 = alloca ptr, align 8
  %6 = alloca ptr, align 8
  %7 = alloca ptr, align 8
  %8 = alloca ptr, align 8
  %9 = alloca i32, align 4
  store ptr %0, ptr %5, align 8
  store ptr %1, ptr %6, align 8
  store ptr %2, ptr %7, align 8
  store ptr %3, ptr %8, align 8
  call void @llvm.lifetime.start.p0(i64 4, ptr %9) #5
  store i32 0, ptr %9, align 4
  %10 = load ptr, ptr %7, align 8
  %11 = load i32, ptr @hf_cigi3_sensor_control_sensor_id, align 4
  %12 = load ptr, ptr %5, align 8
  %13 = load i32, ptr %9, align 4
  %14 = load i32, ptr @cigi_byte_order, align 4
  %15 = call ptr @proto_tree_add_item(ptr noundef %10, i32 noundef %11, ptr noundef %12, i32 noundef %13, i32 noundef 1, i32 noundef %14)
  %16 = load i32, ptr %9, align 4
  %17 = add i32 %16, 1
  store i32 %17, ptr %9, align 4
  %18 = load ptr, ptr %7, align 8
  %19 = load i32, ptr @hf_cigi3_sensor_control_sensor_on_off, align 4
  %20 = load ptr, ptr %5, align 8
  %21 = load i32, ptr %9, align 4
  %22 = load i32, ptr @cigi_byte_order, align 4
  %23 = call ptr @proto_tree_add_item(ptr noundef %18, i32 noundef %19, ptr noundef %20, i32 noundef %21, i32 noundef 1, i32 noundef %22)
  %24 = load ptr, ptr %7, align 8
  %25 = load i32, ptr @hf_cigi3_sensor_control_polarity, align 4
  %26 = load ptr, ptr %5, align 8
  %27 = load i32, ptr %9, align 4
  %28 = load i32, ptr @cigi_byte_order, align 4
  %29 = call ptr @proto_tree_add_item(ptr noundef %24, i32 noundef %25, ptr noundef %26, i32 noundef %27, i32 noundef 1, i32 noundef %28)
  %30 = load ptr, ptr %7, align 8
  %31 = load i32, ptr @hf_cigi3_sensor_control_line_dropout_enable, align 4
  %32 = load ptr, ptr %5, align 8
  %33 = load i32, ptr %9, align 4
  %34 = load i32, ptr @cigi_byte_order, align 4
  %35 = call ptr @proto_tree_add_item(ptr noundef %30, i32 noundef %31, ptr noundef %32, i32 noundef %33, i32 noundef 1, i32 noundef %34)
  %36 = load ptr, ptr %7, align 8
  %37 = load i32, ptr @hf_cigi3_sensor_control_auto_gain, align 4
  %38 = load ptr, ptr %5, align 8
  %39 = load i32, ptr %9, align 4
  %40 = load i32, ptr @cigi_byte_order, align 4
  %41 = call ptr @proto_tree_add_item(ptr noundef %36, i32 noundef %37, ptr noundef %38, i32 noundef %39, i32 noundef 1, i32 noundef %40)
  %42 = load ptr, ptr %7, align 8
  %43 = load i32, ptr @hf_cigi3_sensor_control_track_white_black, align 4
  %44 = load ptr, ptr %5, align 8
  %45 = load i32, ptr %9, align 4
  %46 = load i32, ptr @cigi_byte_order, align 4
  %47 = call ptr @proto_tree_add_item(ptr noundef %42, i32 noundef %43, ptr noundef %44, i32 noundef %45, i32 noundef 1, i32 noundef %46)
  %48 = load ptr, ptr %7, align 8
  %49 = load i32, ptr @hf_cigi3_sensor_control_track_mode, align 4
  %50 = load ptr, ptr %5, align 8
  %51 = load i32, ptr %9, align 4
  %52 = load i32, ptr @cigi_byte_order, align 4
  %53 = call ptr @proto_tree_add_item(ptr noundef %48, i32 noundef %49, ptr noundef %50, i32 noundef %51, i32 noundef 1, i32 noundef %52)
  %54 = load i32, ptr %9, align 4
  %55 = add i32 %54, 1
  store i32 %55, ptr %9, align 4
  %56 = load ptr, ptr %7, align 8
  %57 = load i32, ptr @hf_cigi3_sensor_control_response_type, align 4
  %58 = load ptr, ptr %5, align 8
  %59 = load i32, ptr %9, align 4
  %60 = load i32, ptr @cigi_byte_order, align 4
  %61 = call ptr @proto_tree_add_item(ptr noundef %56, i32 noundef %57, ptr noundef %58, i32 noundef %59, i32 noundef 1, i32 noundef %60)
  %62 = load i32, ptr %9, align 4
  %63 = add i32 %62, 2
  store i32 %63, ptr %9, align 4
  %64 = load ptr, ptr %7, align 8
  %65 = load i32, ptr @hf_cigi3_sensor_control_view_id, align 4
  %66 = load ptr, ptr %5, align 8
  %67 = load i32, ptr %9, align 4
  %68 = load i32, ptr @cigi_byte_order, align 4
  %69 = call ptr @proto_tree_add_item(ptr noundef %64, i32 noundef %65, ptr noundef %66, i32 noundef %67, i32 noundef 2, i32 noundef %68)
  %70 = load i32, ptr %9, align 4
  %71 = add i32 %70, 4
  store i32 %71, ptr %9, align 4
  %72 = load ptr, ptr %7, align 8
  %73 = load i32, ptr @hf_cigi3_sensor_control_gain, align 4
  %74 = load ptr, ptr %5, align 8
  %75 = load i32, ptr %9, align 4
  %76 = load i32, ptr @cigi_byte_order, align 4
  %77 = call ptr @proto_tree_add_item(ptr noundef %72, i32 noundef %73, ptr noundef %74, i32 noundef %75, i32 noundef 4, i32 noundef %76)
  %78 = load i32, ptr %9, align 4
  %79 = add i32 %78, 4
  store i32 %79, ptr %9, align 4
  %80 = load ptr, ptr %7, align 8
  %81 = load i32, ptr @hf_cigi3_sensor_control_level, align 4
  %82 = load ptr, ptr %5, align 8
  %83 = load i32, ptr %9, align 4
  %84 = load i32, ptr @cigi_byte_order, align 4
  %85 = call ptr @proto_tree_add_item(ptr noundef %80, i32 noundef %81, ptr noundef %82, i32 noundef %83, i32 noundef 4, i32 noundef %84)
  %86 = load i32, ptr %9, align 4
  %87 = add i32 %86, 4
  store i32 %87, ptr %9, align 4
  %88 = load ptr, ptr %7, align 8
  %89 = load i32, ptr @hf_cigi3_sensor_control_ac_coupling, align 4
  %90 = load ptr, ptr %5, align 8
  %91 = load i32, ptr %9, align 4
  %92 = load i32, ptr @cigi_byte_order, align 4
  %93 = call ptr @proto_tree_add_item(ptr noundef %88, i32 noundef %89, ptr noundef %90, i32 noundef %91, i32 noundef 4, i32 noundef %92)
  %94 = load i32, ptr %9, align 4
  %95 = add i32 %94, 4
  store i32 %95, ptr %9, align 4
  %96 = load ptr, ptr %7, align 8
  %97 = load i32, ptr @hf_cigi3_sensor_control_noise, align 4
  %98 = load ptr, ptr %5, align 8
  %99 = load i32, ptr %9, align 4
  %100 = load i32, ptr @cigi_byte_order, align 4
  %101 = call ptr @proto_tree_add_item(ptr noundef %96, i32 noundef %97, ptr noundef %98, i32 noundef %99, i32 noundef 4, i32 noundef %100)
  %102 = load i32, ptr %9, align 4
  %103 = add i32 %102, 8
  store i32 %103, ptr %9, align 4
  %104 = load i32, ptr %9, align 4
  call void @llvm.lifetime.end.p0(i64 4, ptr %9) #5
  ret i32 %104
}